target datalayout = "e-m:e-p270:32:32-p271:32:32-p272:64:64-i64:64-i128:128-f80:128-n8:16:32:64-S128"
target triple = "x86_64-pc-linux-gnu"

%"class.cvc5::internal::smt::SolverEngineState" = type <{ %"class.cvc5::internal::EnvObj", i8, i8, [6 x i8], %"class.cvc5::internal::Result", %"class.cvc5::internal::Result", i32, [4 x i8] }>
%"class.cvc5::internal::EnvObj" = type { ptr, ptr }
%"class.cvc5::internal::Result" = type { i32, i32, %"class.std::__cxx11::basic_string" }
%"class.std::__cxx11::basic_string" = type { %"struct.std::__cxx11::basic_string<char>::_Alloc_hider", i64, %union.anon }
%"struct.std::__cxx11::basic_string<char>::_Alloc_hider" = type { ptr }
%union.anon = type { i64, [8 x i8] }

; Function Attrs: mustprogress uwtable
define hidden void @_ZN4cvc58internal3smt17SolverEngineState22notifyCheckSynthResultERKNS0_11SynthResultE(ptr noundef nonnull align 8 dereferenceable(108) %0, ptr noundef nonnull align 4 dereferenceable(8) %1) #4 align 2 {
  %3 = alloca ptr, align 8
  %4 = alloca ptr, align 8
  store ptr %0, ptr %3, align 8, !tbaa !3
  store ptr %1, ptr %4, align 8, !tbaa !250
  %5 = load ptr, ptr %3, align 8
  %6 = getelementptr inbounds nuw %"class.cvc5::internal::smt::SolverEngineState", ptr %5, i32 0, i32 2
  store i8 1, ptr %6, align 1, !tbaa !24
  %7 = load ptr, ptr %4, align 8, !tbaa !250
  %8 = call noundef i32 @_ZNK4cvc58internal11SynthResult9getStatusEv(ptr noundef nonnull align 4 dereferenceable(8) %7)
  %9 = icmp eq i32 %8, 1
  br i1 %9, label %10, label %12

10:                                               ; preds = %2
  %11 = getelementptr inbounds nuw %"class.cvc5::internal::smt::SolverEngineState", ptr %5, i32 0, i32 6
  store i32 7, ptr %11, align 8, !tbaa !25
  br label %14

12:                                               ; preds = %2
  %13 = getelementptr inbounds nuw %"class.cvc5::internal::smt::SolverEngineState", ptr %5, i32 0, i32 6
  store i32 1, ptr %13, align 8, !tbaa !25
  br label %14

14:                                               ; preds = %12, %10
  ret void
}