; Function Attrs: mustprogress uwtable
define hidden void @_ZN4cvc58internal3smt17SolverEngineState22notifyCheckSynthResultERKNS0_11SynthResultE(ptr noundef nonnull writeonly align 8 captures(none) dereferenceable(108) initializes((17, 18), (104, 108)) %0, ptr noundef nonnull align 4 dereferenceable(8) %1) local_unnamed_addr #3 align 2 {
  %3 = getelementptr inbounds nuw i8, ptr %0, i64 17
  store i8 1, ptr %3, align 1, !tbaa !21
  %4 = tail call noundef i32 @_ZNK4cvc58internal11SynthResult9getStatusEv(ptr noundef nonnull align 4 dereferenceable(8) %1)
  %5 = icmp eq i32 %4, 1
  %spec.select = select i1 %5, i32 7, i32 1
  %6 = getelementptr inbounds nuw i8, ptr %0, i64 104
  store i32 %spec.select, ptr %6, align 8, !tbaa !22
  ret void
}